; Function Attrs: mustprogress nounwind uwtable
define void @_ZN7RarTime8GetLocalEP12RarLocalTime(ptr noundef nonnull readonly align 8 captures(none) dereferenceable(8) %0, ptr noundef writeonly captures(none) initializes((0, 36)) %1) local_unnamed_addr #0 align 2 {
  %3 = alloca i64, align 8
  call void @llvm.lifetime.start.p0(i64 8, ptr nonnull %3) #13
  %4 = load i64, ptr %0, align 8, !tbaa !3
  %5 = add i64 %4, 6802270473709551616
  %6 = udiv i64 %5, 1000000000
  store i64 %6, ptr %3, align 8, !tbaa !8
  %7 = call ptr @localtime(ptr noundef nonnull %3) #13
  %8 = getelementptr inbounds nuw i8, ptr %7, i64 20
  %9 = load i32, ptr %8, align 4, !tbaa !9
  %10 = add nsw i32 %9, 1900
  store i32 %10, ptr %1, align 4, !tbaa !14
  %11 = getelementptr inbounds nuw i8, ptr %7, i64 16
  %12 = load i32, ptr %11, align 8, !tbaa !16
  %13 = add nsw i32 %12, 1
  %14 = getelementptr inbounds nuw i8, ptr %1, i64 4
  store i32 %13, ptr %14, align 4, !tbaa !17
  %15 = getelementptr inbounds nuw i8, ptr %7, i64 12
  %16 = load i32, ptr %15, align 4, !tbaa !18
  %17 = getelementptr inbounds nuw i8, ptr %1, i64 8
  store i32 %16, ptr %17, align 4, !tbaa !19
  %18 = getelementptr inbounds nuw i8, ptr %7, i64 8
  %19 = load i32, ptr %18, align 8, !tbaa !20
  %20 = getelementptr inbounds nuw i8, ptr %1, i64 12
  store i32 %19, ptr %20, align 4, !tbaa !21
  %21 = getelementptr inbounds nuw i8, ptr %7, i64 4
  %22 = load i32, ptr %21, align 4, !tbaa !22
  %23 = getelementptr inbounds nuw i8, ptr %1, i64 16
  store i32 %22, ptr %23, align 4, !tbaa !23
  %24 = load i32, ptr %7, align 8, !tbaa !24
  %25 = getelementptr inbounds nuw i8, ptr %1, i64 20
  store i32 %24, ptr %25, align 4, !tbaa !25
  %26 = getelementptr inbounds nuw i8, ptr %7, i64 24
  %27 = load i32, ptr %26, align 8, !tbaa !26
  %28 = getelementptr inbounds nuw i8, ptr %1, i64 28
  store i32 %27, ptr %28, align 4, !tbaa !27
  %29 = getelementptr inbounds nuw i8, ptr %7, i64 28
  %30 = load i32, ptr %29, align 4, !tbaa !28
  %31 = getelementptr inbounds nuw i8, ptr %1, i64 32
  store i32 %30, ptr %31, align 4, !tbaa !29
  %32 = load i64, ptr %0, align 8, !tbaa !3
  %33 = urem i64 %32, 1000000000
  %34 = trunc nuw nsw i64 %33 to i32
  %35 = getelementptr inbounds nuw i8, ptr %1, i64 24
  store i32 %34, ptr %35, align 4, !tbaa !30
  call void @llvm.lifetime.end.p0(i64 8, ptr nonnull %3) #13
  ret void
}